; Function Attrs: nounwind uwtable
define void @Hop_ObjDelete(ptr noundef %0, ptr noundef %1) local_unnamed_addr #0 {
  %3 = getelementptr inbounds nuw i8, ptr %0, i64 72
  %4 = getelementptr inbounds nuw i8, ptr %1, i64 32
  %5 = load i32, ptr %4, align 8
  %6 = and i32 %5, 7
  %7 = zext nneg i32 %6 to i64
  %8 = getelementptr inbounds nuw [6 x i32], ptr %3, i64 0, i64 %7
  %9 = load i32, ptr %8, align 4
  %10 = add nsw i32 %9, -1
  store i32 %10, ptr %8, align 4
  %11 = getelementptr inbounds nuw i8, ptr %0, i64 100
  %12 = load i32, ptr %11, align 4
  %13 = add nsw i32 %12, 1
  store i32 %13, ptr %11, align 4
  %14 = getelementptr inbounds nuw i8, ptr %1, i64 16
  %15 = load ptr, ptr %14, align 8
  %.not.i = icmp eq ptr %15, null
  br i1 %.not.i, label %26, label %16

16:                                               ; preds = %2
  %17 = ptrtoint ptr %15 to i64
  %18 = and i64 %17, -2
  %19 = inttoptr i64 %18 to ptr
  %20 = getelementptr inbounds nuw i8, ptr %19, i64 32
  %21 = load i32, ptr %20, align 8
  %22 = and i32 %21, -64
  %23 = add i32 %22, -64
  %24 = and i32 %21, 63
  %25 = or disjoint i32 %23, %24
  store i32 %25, ptr %20, align 8
  br label %26

26:                                               ; preds = %16, %2
  %27 = getelementptr inbounds nuw i8, ptr %1, i64 24
  %28 = load ptr, ptr %27, align 8
  %.not8.i = icmp eq ptr %28, null
  br i1 %.not8.i, label %Hop_ObjDisconnect.exit, label %29

29:                                               ; preds = %26
  %30 = ptrtoint ptr %28 to i64
  %31 = and i64 %30, -2
  %32 = inttoptr i64 %31 to ptr
  %33 = getelementptr inbounds nuw i8, ptr %32, i64 32
  %34 = load i32, ptr %33, align 8
  %35 = and i32 %34, -64
  %36 = add i32 %35, -64
  %37 = and i32 %34, 63
  %38 = or disjoint i32 %36, %37
  store i32 %38, ptr %33, align 8
  br label %Hop_ObjDisconnect.exit

Hop_ObjDisconnect.exit:                           ; preds = %26, %29
  tail call void @Hop_TableDelete(ptr noundef nonnull %0, ptr noundef nonnull %1) #10
  tail call void @llvm.memset.p0.i64(ptr noundef nonnull align 8 dereferenceable(16) %14, i8 0, i64 16, i1 false)
  %.val = load i32, ptr %4, align 8
  %39 = and i32 %.val, 7
  %.not = icmp eq i32 %39, 2
  br i1 %.not, label %40, label %67

40:                                               ; preds = %Hop_ObjDisconnect.exit
  %41 = load ptr, ptr %0, align 8
  %42 = getelementptr inbounds nuw i8, ptr %41, i64 4
  %43 = load i32, ptr %42, align 4
  %44 = getelementptr inbounds nuw i8, ptr %41, i64 8
  %45 = zext i32 %43 to i64
  %smin.i = tail call i32 @llvm.smin.i32(i32 %43, i32 0)
  br label %46

46:                                               ; preds = %49, %40
  %indvars.iv.i = phi i64 [ %50, %49 ], [ %45, %40 ]
  %47 = trunc nuw i64 %indvars.iv.i to i32
  %48 = icmp sgt i32 %47, 0
  br i1 %48, label %49, label %55

49:                                               ; preds = %46
  %50 = add nsw i64 %indvars.iv.i, -1
  %51 = load ptr, ptr %44, align 8
  %52 = getelementptr inbounds nuw ptr, ptr %51, i64 %50
  %53 = load ptr, ptr %52, align 8
  %54 = icmp eq ptr %53, %1
  br i1 %54, label %55, label %46, !llvm.loop !4

55:                                               ; preds = %49, %46
  %.0.in.lcssa.i = phi i32 [ %47, %49 ], [ %smin.i, %46 ]
  %56 = icmp slt i32 %.0.in.lcssa.i, %43
  br i1 %56, label %.lr.ph.i, label %Vec_PtrRemove.exit

.lr.ph.i:                                         ; preds = %55
  %57 = sext i32 %.0.in.lcssa.i to i64
  br label %58

58:                                               ; preds = %58, %.lr.ph.i
  %indvars.iv19.i = phi i64 [ %57, %.lr.ph.i ], [ %indvars.iv.next20.i, %58 ]
  %59 = load ptr, ptr %44, align 8
  %60 = getelementptr inbounds ptr, ptr %59, i64 %indvars.iv19.i
  %61 = load ptr, ptr %60, align 8
  %62 = getelementptr i8, ptr %60, i64 -8
  store ptr %61, ptr %62, align 8
  %indvars.iv.next20.i = add nsw i64 %indvars.iv19.i, 1
  %63 = load i32, ptr %42, align 4
  %64 = sext i32 %63 to i64
  %65 = icmp slt i64 %indvars.iv.next20.i, %64
  br i1 %65, label %58, label %Vec_PtrRemove.exit, !llvm.loop !6

Vec_PtrRemove.exit:                               ; preds = %58, %55
  %.lcssa.i = phi i32 [ %43, %55 ], [ %63, %58 ]
  %66 = add nsw i32 %.lcssa.i, -1
  store i32 %66, ptr %42, align 4
  %.pre = load i32, ptr %4, align 8
  br label %67

67:                                               ; preds = %Vec_PtrRemove.exit, %Hop_ObjDisconnect.exit
  %68 = phi i32 [ %.pre, %Vec_PtrRemove.exit ], [ %.val, %Hop_ObjDisconnect.exit ]
  %69 = and i32 %68, -8
  store i32 %69, ptr %4, align 8
  %70 = getelementptr inbounds nuw i8, ptr %0, i64 160
  %71 = load ptr, ptr %70, align 8
  store ptr %71, ptr %1, align 8
  store ptr %1, ptr %70, align 8
  ret void
}